; Function Attrs: mustprogress uwtable
define noundef ptr @_ZN6icu_7522TransliteratorRegistry4findERKNS_13UnicodeStringE(ptr noundef nonnull align 8 dereferenceable(312) %this, ptr noundef nonnull align 8 dereferenceable(64) %ID) local_unnamed_addr #1 align 2 personality ptr @__gxx_personality_v0 {
invoke.cont3:
  %source = alloca %"class.icu_75::UnicodeString", align 8
  %target = alloca %"class.icu_75::UnicodeString", align 8
  %variant = alloca %"class.icu_75::UnicodeString", align 8
  %sawSource = alloca i8, align 1
  store ptr getelementptr inbounds ({ [13 x ptr] }, ptr @_ZTVN6icu_7513UnicodeStringE, i64 0, i32 0, i64 2), ptr %source, align 8
  %fUnion2.i = getelementptr inbounds i8, ptr %source, i64 8
  store i16 2, ptr %fUnion2.i, align 8
  store ptr getelementptr inbounds ({ [13 x ptr] }, ptr @_ZTVN6icu_7513UnicodeStringE, i64 0, i32 0, i64 2), ptr %target, align 8
  %fUnion2.i3 = getelementptr inbounds i8, ptr %target, i64 8
  store i16 2, ptr %fUnion2.i3, align 8
  store ptr getelementptr inbounds ({ [13 x ptr] }, ptr @_ZTVN6icu_7513UnicodeStringE, i64 0, i32 0, i64 2), ptr %variant, align 8
  %fUnion2.i4 = getelementptr inbounds i8, ptr %variant, i64 8
  store i16 2, ptr %fUnion2.i4, align 8
  invoke void @_ZN6icu_7522TransliteratorIDParser7IDtoSTVERKNS_13UnicodeStringERS1_S4_S4_Ra(ptr noundef nonnull align 8 dereferenceable(64) %ID, ptr noundef nonnull align 8 dereferenceable(64) %source, ptr noundef nonnull align 8 dereferenceable(64) %target, ptr noundef nonnull align 8 dereferenceable(64) %variant, ptr noundef nonnull align 1 dereferenceable(1) %sawSource)
          to label %invoke.cont5 unwind label %lpad4

invoke.cont5:                                     ; preds = %invoke.cont3
  %call = invoke noundef ptr @_ZN6icu_7522TransliteratorRegistry4findERNS_13UnicodeStringES2_S2_(ptr noundef nonnull align 8 dereferenceable(312) %this, ptr noundef nonnull align 8 dereferenceable(64) %source, ptr noundef nonnull align 8 dereferenceable(64) %target, ptr noundef nonnull align 8 dereferenceable(64) %variant)
          to label %invoke.cont6 unwind label %lpad4

invoke.cont6:                                     ; preds = %invoke.cont5
  call void @_ZN6icu_7513UnicodeStringD1Ev(ptr noundef nonnull align 8 dereferenceable(64) %variant) #15
  call void @_ZN6icu_7513UnicodeStringD1Ev(ptr noundef nonnull align 8 dereferenceable(64) %target) #15
  call void @_ZN6icu_7513UnicodeStringD1Ev(ptr noundef nonnull align 8 dereferenceable(64) %source) #15
  ret ptr %call

lpad4:                                            ; preds = %invoke.cont5, %invoke.cont3
  %0 = landingpad { ptr, i32 }
          cleanup
  call void @_ZN6icu_7513UnicodeStringD1Ev(ptr noundef nonnull align 8 dereferenceable(64) %variant) #15
  call void @_ZN6icu_7513UnicodeStringD1Ev(ptr noundef nonnull align 8 dereferenceable(64) %target) #15
  call void @_ZN6icu_7513UnicodeStringD1Ev(ptr noundef nonnull align 8 dereferenceable(64) %source) #15
  resume { ptr, i32 } %0
}